target datalayout = "e-m:e-p270:32:32-p271:32:32-p272:64:64-i64:64-i128:128-f80:128-n8:16:32:64-S128"
target triple = "x86_64-pc-linux-gnu"

%"class.pxrInternal_v0_24__pxrReserved__::GfMatrix4d" = type { %"class.pxrInternal_v0_24__pxrReserved__::GfMatrixData" }
%"class.pxrInternal_v0_24__pxrReserved__::GfMatrixData" = type { [16 x double] }
%"class.pxrInternal_v0_24__pxrReserved__::GfBBox3d" = type <{ %"class.pxrInternal_v0_24__pxrReserved__::GfRange3d", %"class.pxrInternal_v0_24__pxrReserved__::GfMatrix4d", %"class.pxrInternal_v0_24__pxrReserved__::GfMatrix4d", i8, i8, [6 x i8] }>
%"class.pxrInternal_v0_24__pxrReserved__::GfRange3d" = type { %"class.pxrInternal_v0_24__pxrReserved__::GfVec3d", %"class.pxrInternal_v0_24__pxrReserved__::GfVec3d" }
%"class.pxrInternal_v0_24__pxrReserved__::GfVec3d" = type { [3 x double] }

; Function Attrs: mustprogress nounwind uwtable
define linkonce_odr noundef ptr @_ZNK32pxrInternal_v0_24__pxrReserved__12GfMatrixDataIdLi4ELi4EEixEi(ptr noundef nonnull align 8 dereferenceable(128) %0, i32 noundef %1) #2 comdat align 2 {
  %3 = alloca ptr, align 8
  %4 = alloca i32, align 4
  store ptr %0, ptr %3, align 8
  store i32 %1, ptr %4, align 4
  %5 = load ptr, ptr %3, align 8
  %6 = getelementptr inbounds nuw %"class.pxrInternal_v0_24__pxrReserved__::GfMatrixData", ptr %5, i32 0, i32 0
  %7 = getelementptr inbounds [16 x double], ptr %6, i64 0, i64 0
  %8 = load i32, ptr %4, align 4
  %9 = mul nsw i32 %8, 4
  %10 = sext i32 %9 to i64
  %11 = getelementptr inbounds double, ptr %7, i64 %10
  ret ptr %11
}

; Function Attrs: mustprogress nounwind uwtable
define linkonce_odr void @_ZN32pxrInternal_v0_24__pxrReserved__9GfRange3dC2ERKNS_7GfVec3dES3_(ptr noundef nonnull align 8 dereferenceable(48) %0, ptr noundef nonnull align 8 dereferenceable(24) %1, ptr noundef nonnull align 8 dereferenceable(24) %2) unnamed_addr #2 comdat align 2 {
  %4 = alloca ptr, align 8
  %5 = alloca ptr, align 8
  %6 = alloca ptr, align 8
  store ptr %0, ptr %4, align 8
  store ptr %1, ptr %5, align 8
  store ptr %2, ptr %6, align 8
  %7 = load ptr, ptr %4, align 8
  %8 = getelementptr inbounds nuw %"class.pxrInternal_v0_24__pxrReserved__::GfRange3d", ptr %7, i32 0, i32 0
  %9 = load ptr, ptr %5, align 8
  call void @llvm.memcpy.p0.p0.i64(ptr align 8 %8, ptr align 8 %9, i64 24, i1 false)
  %10 = getelementptr inbounds nuw %"class.pxrInternal_v0_24__pxrReserved__::GfRange3d", ptr %7, i32 0, i32 1
  %11 = load ptr, ptr %6, align 8
  call void @llvm.memcpy.p0.p0.i64(ptr align 8 %10, ptr align 8 %11, i64 24, i1 false)
  ret void
}

; Function Attrs: mustprogress nounwind uwtable
define linkonce_odr noundef nonnull align 8 dereferenceable(8) ptr @_ZN32pxrInternal_v0_24__pxrReserved__7GfVec3dixEm(ptr noundef nonnull align 8 dereferenceable(24) %0, i64 noundef %1) #2 comdat align 2 {
  %3 = alloca ptr, align 8
  %4 = alloca i64, align 8
  store ptr %0, ptr %3, align 8
  store i64 %1, ptr %4, align 8
  %5 = load ptr, ptr %3, align 8
  %6 = getelementptr inbounds nuw %"class.pxrInternal_v0_24__pxrReserved__::GfVec3d", ptr %5, i32 0, i32 0
  %7 = load i64, ptr %4, align 8
  %8 = getelementptr inbounds [3 x double], ptr %6, i64 0, i64 %7
  ret ptr %8
}

; Function Attrs: mustprogress nounwind uwtable
define linkonce_odr noundef nonnull align 8 dereferenceable(8) ptr @_ZNK32pxrInternal_v0_24__pxrReserved__7GfVec3dixEm(ptr noundef nonnull align 8 dereferenceable(24) %0, i64 noundef %1) #2 comdat align 2 {
  %3 = alloca ptr, align 8
  %4 = alloca i64, align 8
  store ptr %0, ptr %3, align 8
  store i64 %1, ptr %4, align 8
  %5 = load ptr, ptr %3, align 8
  %6 = getelementptr inbounds nuw %"class.pxrInternal_v0_24__pxrReserved__::GfVec3d", ptr %5, i32 0, i32 0
  %7 = load i64, ptr %4, align 8
  %8 = getelementptr inbounds [3 x double], ptr %6, i64 0, i64 %7
  ret ptr %8
}

; Function Attrs: mustprogress nounwind uwtable
define linkonce_odr noundef nonnull align 8 dereferenceable(24) ptr @_ZNK32pxrInternal_v0_24__pxrReserved__9GfRange3d6GetMaxEv(ptr noundef nonnull align 8 dereferenceable(48) %0) #2 comdat align 2 {
  %2 = alloca ptr, align 8
  store ptr %0, ptr %2, align 8
  %3 = load ptr, ptr %2, align 8
  %4 = getelementptr inbounds nuw %"class.pxrInternal_v0_24__pxrReserved__::GfRange3d", ptr %3, i32 0, i32 1
  ret ptr %4
}

; Function Attrs: mustprogress nounwind uwtable
define linkonce_odr noundef nonnull align 8 dereferenceable(24) ptr @_ZNK32pxrInternal_v0_24__pxrReserved__9GfRange3d6GetMinEv(ptr noundef nonnull align 8 dereferenceable(48) %0) #2 comdat align 2 {
  %2 = alloca ptr, align 8
  store ptr %0, ptr %2, align 8
  %3 = load ptr, ptr %2, align 8
  %4 = getelementptr inbounds nuw %"class.pxrInternal_v0_24__pxrReserved__::GfRange3d", ptr %3, i32 0, i32 0
  ret ptr %4
}

; Function Attrs: mustprogress nounwind uwtable
define linkonce_odr void @_ZN32pxrInternal_v0_24__pxrReserved__7GfVec3dC2Eddd(ptr noundef nonnull align 8 dereferenceable(24) %0, double noundef %1, double noundef %2, double noundef %3) unnamed_addr #2 comdat align 2 {
  %5 = alloca ptr, align 8
  %6 = alloca double, align 8
  %7 = alloca double, align 8
  %8 = alloca double, align 8
  store ptr %0, ptr %5, align 8
  store double %1, ptr %6, align 8
  store double %2, ptr %7, align 8
  store double %3, ptr %8, align 8
  %9 = load ptr, ptr %5, align 8
  %10 = getelementptr inbounds nuw %"class.pxrInternal_v0_24__pxrReserved__::GfVec3d", ptr %9, i32 0, i32 0
  %11 = load double, ptr %6, align 8
  store double %11, ptr %10, align 8
  %12 = getelementptr inbounds double, ptr %10, i64 1
  %13 = load double, ptr %7, align 8
  store double %13, ptr %12, align 8
  %14 = getelementptr inbounds double, ptr %10, i64 2
  %15 = load double, ptr %8, align 8
  store double %15, ptr %14, align 8
  ret void
}

; Function Attrs: mustprogress uwtable
define linkonce_odr noundef ptr @_ZNK32pxrInternal_v0_24__pxrReserved__10GfMatrix4dixEi(ptr noundef nonnull align 8 dereferenceable(128) %0, i32 noundef %1) #0 comdat align 2 {
  %3 = alloca ptr, align 8
  %4 = alloca i32, align 4
  store ptr %0, ptr %3, align 8
  store i32 %1, ptr %4, align 4
  %5 = load ptr, ptr %3, align 8
  %6 = getelementptr inbounds nuw %"class.pxrInternal_v0_24__pxrReserved__::GfMatrix4d", ptr %5, i32 0, i32 0
  %7 = load i32, ptr %4, align 4
  %8 = call noundef ptr @_ZNK32pxrInternal_v0_24__pxrReserved__12GfMatrixDataIdLi4ELi4EEixEi(ptr noundef nonnull align 8 dereferenceable(128) %6, i32 noundef %7)
  ret ptr %8
}

; Function Attrs: mustprogress uwtable
define linkonce_odr noundef zeroext i1 @_ZNK32pxrInternal_v0_24__pxrReserved__9GfRange3d7IsEmptyEv(ptr noundef nonnull align 8 dereferenceable(48) %0) #0 comdat align 2 {
  %2 = alloca ptr, align 8
  store ptr %0, ptr %2, align 8
  %3 = load ptr, ptr %2, align 8
  %4 = getelementptr inbounds nuw %"class.pxrInternal_v0_24__pxrReserved__::GfRange3d", ptr %3, i32 0, i32 0
  %5 = call noundef nonnull align 8 dereferenceable(8) ptr @_ZNK32pxrInternal_v0_24__pxrReserved__7GfVec3dixEm(ptr noundef nonnull align 8 dereferenceable(24) %4, i64 noundef 0)
  %6 = load double, ptr %5, align 8
  %7 = getelementptr inbounds nuw %"class.pxrInternal_v0_24__pxrReserved__::GfRange3d", ptr %3, i32 0, i32 1
  %8 = call noundef nonnull align 8 dereferenceable(8) ptr @_ZNK32pxrInternal_v0_24__pxrReserved__7GfVec3dixEm(ptr noundef nonnull align 8 dereferenceable(24) %7, i64 noundef 0)
  %9 = load double, ptr %8, align 8
  %10 = fcmp ogt double %6, %9
  br i1 %10, label %27, label %11

11:                                               ; preds = %1
  %12 = getelementptr inbounds nuw %"class.pxrInternal_v0_24__pxrReserved__::GfRange3d", ptr %3, i32 0, i32 0
  %13 = call noundef nonnull align 8 dereferenceable(8) ptr @_ZNK32pxrInternal_v0_24__pxrReserved__7GfVec3dixEm(ptr noundef nonnull align 8 dereferenceable(24) %12, i64 noundef 1)
  %14 = load double, ptr %13, align 8
  %15 = getelementptr inbounds nuw %"class.pxrInternal_v0_24__pxrReserved__::GfRange3d", ptr %3, i32 0, i32 1
  %16 = call noundef nonnull align 8 dereferenceable(8) ptr @_ZNK32pxrInternal_v0_24__pxrReserved__7GfVec3dixEm(ptr noundef nonnull align 8 dereferenceable(24) %15, i64 noundef 1)
  %17 = load double, ptr %16, align 8
  %18 = fcmp ogt double %14, %17
  br i1 %18, label %27, label %19

19:                                               ; preds = %11
  %20 = getelementptr inbounds nuw %"class.pxrInternal_v0_24__pxrReserved__::GfRange3d", ptr %3, i32 0, i32 0
  %21 = call noundef nonnull align 8 dereferenceable(8) ptr @_ZNK32pxrInternal_v0_24__pxrReserved__7GfVec3dixEm(ptr noundef nonnull align 8 dereferenceable(24) %20, i64 noundef 2)
  %22 = load double, ptr %21, align 8
  %23 = getelementptr inbounds nuw %"class.pxrInternal_v0_24__pxrReserved__::GfRange3d", ptr %3, i32 0, i32 1
  %24 = call noundef nonnull align 8 dereferenceable(8) ptr @_ZNK32pxrInternal_v0_24__pxrReserved__7GfVec3dixEm(ptr noundef nonnull align 8 dereferenceable(24) %23, i64 noundef 2)
  %25 = load double, ptr %24, align 8
  %26 = fcmp ogt double %22, %25
  br label %27

27:                                               ; preds = %19, %11, %1
  %28 = phi i1 [ true, %11 ], [ true, %1 ], [ %26, %19 ]
  ret i1 %28
}

; Function Attrs: mustprogress uwtable
define void @_ZNK32pxrInternal_v0_24__pxrReserved__8GfBBox3d19ComputeAlignedRangeEv(ptr dead_on_unwind noalias writable sret(%"class.pxrInternal_v0_24__pxrReserved__::GfRange3d") align 8 %0, ptr noundef nonnull align 8 dereferenceable(306) %1) #0 align 2 {
  %3 = alloca ptr, align 8
  %4 = alloca %"class.pxrInternal_v0_24__pxrReserved__::GfVec3d", align 8
  %5 = alloca %"class.pxrInternal_v0_24__pxrReserved__::GfVec3d", align 8
  %6 = alloca %"class.pxrInternal_v0_24__pxrReserved__::GfVec3d", align 8
  %7 = alloca ptr, align 8
  %8 = alloca ptr, align 8
  %9 = alloca i32, align 4
  %10 = alloca i32, align 4
  %11 = alloca double, align 8
  %12 = alloca double, align 8
  store ptr %1, ptr %3, align 8
  %13 = load ptr, ptr %3, align 8
  %14 = getelementptr inbounds nuw %"class.pxrInternal_v0_24__pxrReserved__::GfBBox3d", ptr %13, i32 0, i32 0
  %15 = call noundef zeroext i1 @_ZNK32pxrInternal_v0_24__pxrReserved__9GfRange3d7IsEmptyEv(ptr noundef nonnull align 8 dereferenceable(48) %14)
  br i1 %15, label %16, label %18

16:                                               ; preds = %2
  %17 = getelementptr inbounds nuw %"class.pxrInternal_v0_24__pxrReserved__::GfBBox3d", ptr %13, i32 0, i32 0
  call void @llvm.memcpy.p0.p0.i64(ptr align 8 %0, ptr align 8 %17, i64 48, i1 false)
  br label %107

18:                                               ; preds = %2
  %19 = getelementptr inbounds nuw %"class.pxrInternal_v0_24__pxrReserved__::GfBBox3d", ptr %13, i32 0, i32 1
  %20 = call noundef ptr @_ZNK32pxrInternal_v0_24__pxrReserved__10GfMatrix4dixEi(ptr noundef nonnull align 8 dereferenceable(128) %19, i32 noundef 3)
  %21 = getelementptr inbounds double, ptr %20, i64 0
  %22 = load double, ptr %21, align 8
  %23 = getelementptr inbounds nuw %"class.pxrInternal_v0_24__pxrReserved__::GfBBox3d", ptr %13, i32 0, i32 1
  %24 = call noundef ptr @_ZNK32pxrInternal_v0_24__pxrReserved__10GfMatrix4dixEi(ptr noundef nonnull align 8 dereferenceable(128) %23, i32 noundef 3)
  %25 = getelementptr inbounds double, ptr %24, i64 1
  %26 = load double, ptr %25, align 8
  %27 = getelementptr inbounds nuw %"class.pxrInternal_v0_24__pxrReserved__::GfBBox3d", ptr %13, i32 0, i32 1
  %28 = call noundef ptr @_ZNK32pxrInternal_v0_24__pxrReserved__10GfMatrix4dixEi(ptr noundef nonnull align 8 dereferenceable(128) %27, i32 noundef 3)
  %29 = getelementptr inbounds double, ptr %28, i64 2
  %30 = load double, ptr %29, align 8
  call void @_ZN32pxrInternal_v0_24__pxrReserved__7GfVec3dC2Eddd(ptr noundef nonnull align 8 dereferenceable(24) %4, double noundef %22, double noundef %26, double noundef %30)
  call void @llvm.memcpy.p0.p0.i64(ptr align 8 %5, ptr align 8 %4, i64 24, i1 false)
  call void @llvm.memcpy.p0.p0.i64(ptr align 8 %6, ptr align 8 %4, i64 24, i1 false)
  %31 = getelementptr inbounds nuw %"class.pxrInternal_v0_24__pxrReserved__::GfBBox3d", ptr %13, i32 0, i32 0
  %32 = call noundef nonnull align 8 dereferenceable(24) ptr @_ZNK32pxrInternal_v0_24__pxrReserved__9GfRange3d6GetMinEv(ptr noundef nonnull align 8 dereferenceable(48) %31)
  store ptr %32, ptr %7, align 8
  %33 = getelementptr inbounds nuw %"class.pxrInternal_v0_24__pxrReserved__::GfBBox3d", ptr %13, i32 0, i32 0
  %34 = call noundef nonnull align 8 dereferenceable(24) ptr @_ZNK32pxrInternal_v0_24__pxrReserved__9GfRange3d6GetMaxEv(ptr noundef nonnull align 8 dereferenceable(48) %33)
  store ptr %34, ptr %8, align 8
  store i32 0, ptr %9, align 4
  br label %35

35:                                               ; preds = %103, %18
  %36 = load i32, ptr %9, align 4
  %37 = icmp slt i32 %36, 3
  br i1 %37, label %38, label %106

38:                                               ; preds = %35
  store i32 0, ptr %10, align 4
  br label %39

39:                                               ; preds = %99, %38
  %40 = load i32, ptr %10, align 4
  %41 = icmp slt i32 %40, 3
  br i1 %41, label %42, label %102

42:                                               ; preds = %39
  %43 = load ptr, ptr %7, align 8
  %44 = load i32, ptr %10, align 4
  %45 = sext i32 %44 to i64
  %46 = call noundef nonnull align 8 dereferenceable(8) ptr @_ZNK32pxrInternal_v0_24__pxrReserved__7GfVec3dixEm(ptr noundef nonnull align 8 dereferenceable(24) %43, i64 noundef %45)
  %47 = load double, ptr %46, align 8
  %48 = getelementptr inbounds nuw %"class.pxrInternal_v0_24__pxrReserved__::GfBBox3d", ptr %13, i32 0, i32 1
  %49 = load i32, ptr %10, align 4
  %50 = call noundef ptr @_ZNK32pxrInternal_v0_24__pxrReserved__10GfMatrix4dixEi(ptr noundef nonnull align 8 dereferenceable(128) %48, i32 noundef %49)
  %51 = load i32, ptr %9, align 4
  %52 = sext i32 %51 to i64
  %53 = getelementptr inbounds double, ptr %50, i64 %52
  %54 = load double, ptr %53, align 8
  %55 = fmul double %47, %54
  store double %55, ptr %11, align 8
  %56 = load ptr, ptr %8, align 8
  %57 = load i32, ptr %10, align 4
  %58 = sext i32 %57 to i64
  %59 = call noundef nonnull align 8 dereferenceable(8) ptr @_ZNK32pxrInternal_v0_24__pxrReserved__7GfVec3dixEm(ptr noundef nonnull align 8 dereferenceable(24) %56, i64 noundef %58)
  %60 = load double, ptr %59, align 8
  %61 = getelementptr inbounds nuw %"class.pxrInternal_v0_24__pxrReserved__::GfBBox3d", ptr %13, i32 0, i32 1
  %62 = load i32, ptr %10, align 4
  %63 = call noundef ptr @_ZNK32pxrInternal_v0_24__pxrReserved__10GfMatrix4dixEi(ptr noundef nonnull align 8 dereferenceable(128) %61, i32 noundef %62)
  %64 = load i32, ptr %9, align 4
  %65 = sext i32 %64 to i64
  %66 = getelementptr inbounds double, ptr %63, i64 %65
  %67 = load double, ptr %66, align 8
  %68 = fmul double %60, %67
  store double %68, ptr %12, align 8
  %69 = load double, ptr %11, align 8
  %70 = load double, ptr %12, align 8
  %71 = fcmp olt double %69, %70
  br i1 %71, label %72, label %85

72:                                               ; preds = %42
  %73 = load double, ptr %11, align 8
  %74 = load i32, ptr %9, align 4
  %75 = sext i32 %74 to i64
  %76 = call noundef nonnull align 8 dereferenceable(8) ptr @_ZN32pxrInternal_v0_24__pxrReserved__7GfVec3dixEm(ptr noundef nonnull align 8 dereferenceable(24) %5, i64 noundef %75)
  %77 = load double, ptr %76, align 8
  %78 = fadd double %77, %73
  store double %78, ptr %76, align 8
  %79 = load double, ptr %12, align 8
  %80 = load i32, ptr %9, align 4
  %81 = sext i32 %80 to i64
  %82 = call noundef nonnull align 8 dereferenceable(8) ptr @_ZN32pxrInternal_v0_24__pxrReserved__7GfVec3dixEm(ptr noundef nonnull align 8 dereferenceable(24) %6, i64 noundef %81)
  %83 = load double, ptr %82, align 8
  %84 = fadd double %83, %79
  store double %84, ptr %82, align 8
  br label %98

85:                                               ; preds = %42
  %86 = load double, ptr %12, align 8
  %87 = load i32, ptr %9, align 4
  %88 = sext i32 %87 to i64
  %89 = call noundef nonnull align 8 dereferenceable(8) ptr @_ZN32pxrInternal_v0_24__pxrReserved__7GfVec3dixEm(ptr noundef nonnull align 8 dereferenceable(24) %5, i64 noundef %88)
  %90 = load double, ptr %89, align 8
  %91 = fadd double %90, %86
  store double %91, ptr %89, align 8
  %92 = load double, ptr %11, align 8
  %93 = load i32, ptr %9, align 4
  %94 = sext i32 %93 to i64
  %95 = call noundef nonnull align 8 dereferenceable(8) ptr @_ZN32pxrInternal_v0_24__pxrReserved__7GfVec3dixEm(ptr noundef nonnull align 8 dereferenceable(24) %6, i64 noundef %94)
  %96 = load double, ptr %95, align 8
  %97 = fadd double %96, %92
  store double %97, ptr %95, align 8
  br label %98

98:                                               ; preds = %85, %72
  br label %99

99:                                               ; preds = %98
  %100 = load i32, ptr %10, align 4
  %101 = add nsw i32 %100, 1
  store i32 %101, ptr %10, align 4
  br label %39, !llvm.loop !4

102:                                              ; preds = %39
  br label %103

103:                                              ; preds = %102
  %104 = load i32, ptr %9, align 4
  %105 = add nsw i32 %104, 1
  store i32 %105, ptr %9, align 4
  br label %35, !llvm.loop !6

106:                                              ; preds = %35
  call void @_ZN32pxrInternal_v0_24__pxrReserved__9GfRange3dC2ERKNS_7GfVec3dES3_(ptr noundef nonnull align 8 dereferenceable(48) %0, ptr noundef nonnull align 8 dereferenceable(24) %5, ptr noundef nonnull align 8 dereferenceable(24) %6)
  br label %107

107:                                              ; preds = %106, %16
  ret void
}