; Function Attrs: mustprogress nofree norecurse nosync nounwind memory(argmem: readwrite) uwtable
define void @_ZNK32pxrInternal_v0_24__pxrReserved__8GfBBox3d19ComputeAlignedRangeEv(ptr dead_on_unwind noalias writable writeonly sret(%"class.pxrInternal_v0_24__pxrReserved__::GfRange3d") align 8 captures(none) %0, ptr noundef nonnull readonly align 8 captures(none) dereferenceable(306) %1) local_unnamed_addr #4 align 2 {
  %3 = alloca %"class.pxrInternal_v0_24__pxrReserved__::GfVec3d", align 8
  %4 = alloca %"class.pxrInternal_v0_24__pxrReserved__::GfVec3d", align 8
  %5 = load double, ptr %1, align 8
  %6 = getelementptr inbounds nuw i8, ptr %1, i64 24
  %7 = load double, ptr %6, align 8
  %8 = fcmp ogt double %5, %7
  br i1 %8, label %_ZNK32pxrInternal_v0_24__pxrReserved__9GfRange3d7IsEmptyEv.exit.thread, label %9

9:                                                ; preds = %2
  %10 = getelementptr inbounds nuw i8, ptr %1, i64 8
  %11 = load double, ptr %10, align 8
  %12 = getelementptr inbounds nuw i8, ptr %1, i64 32
  %13 = load double, ptr %12, align 8
  %14 = fcmp ogt double %11, %13
  br i1 %14, label %_ZNK32pxrInternal_v0_24__pxrReserved__9GfRange3d7IsEmptyEv.exit.thread, label %_ZNK32pxrInternal_v0_24__pxrReserved__9GfRange3d7IsEmptyEv.exit

_ZNK32pxrInternal_v0_24__pxrReserved__9GfRange3d7IsEmptyEv.exit: ; preds = %9
  %15 = getelementptr inbounds nuw i8, ptr %1, i64 16
  %16 = load double, ptr %15, align 8
  %17 = getelementptr inbounds nuw i8, ptr %1, i64 40
  %18 = load double, ptr %17, align 8
  %19 = fcmp ogt double %16, %18
  br i1 %19, label %_ZNK32pxrInternal_v0_24__pxrReserved__9GfRange3d7IsEmptyEv.exit.thread, label %20

_ZNK32pxrInternal_v0_24__pxrReserved__9GfRange3d7IsEmptyEv.exit.thread: ; preds = %2, %9, %_ZNK32pxrInternal_v0_24__pxrReserved__9GfRange3d7IsEmptyEv.exit
  tail call void @llvm.memcpy.p0.p0.i64(ptr noundef nonnull align 8 dereferenceable(48) %0, ptr noundef nonnull align 8 dereferenceable(48) %1, i64 48, i1 false)
  br label %45

20:                                               ; preds = %_ZNK32pxrInternal_v0_24__pxrReserved__9GfRange3d7IsEmptyEv.exit
  %21 = getelementptr inbounds nuw i8, ptr %1, i64 48
  %22 = getelementptr inbounds nuw i8, ptr %1, i64 144
  %23 = load double, ptr %22, align 8
  %24 = getelementptr inbounds nuw i8, ptr %1, i64 152
  %25 = load double, ptr %24, align 8
  %26 = getelementptr inbounds nuw i8, ptr %1, i64 160
  %27 = load double, ptr %26, align 8
  store double %23, ptr %3, align 8
  %.sroa.3.0..sroa_idx = getelementptr inbounds nuw i8, ptr %3, i64 8
  store double %25, ptr %.sroa.3.0..sroa_idx, align 8
  %.sroa.4.0..sroa_idx = getelementptr inbounds nuw i8, ptr %3, i64 16
  store double %27, ptr %.sroa.4.0..sroa_idx, align 8
  store double %23, ptr %4, align 8
  %.sroa.3.0..sroa_idx27 = getelementptr inbounds nuw i8, ptr %4, i64 8
  store double %25, ptr %.sroa.3.0..sroa_idx27, align 8
  %.sroa.4.0..sroa_idx29 = getelementptr inbounds nuw i8, ptr %4, i64 16
  store double %27, ptr %.sroa.4.0..sroa_idx29, align 8
  br label %.preheader

.preheader:                                       ; preds = %20, %42
  %indvars.iv34 = phi i64 [ 0, %20 ], [ %indvars.iv.next35, %42 ]
  %invariant.gep = getelementptr inbounds nuw double, ptr %21, i64 %indvars.iv34
  %28 = getelementptr inbounds nuw [3 x double], ptr %3, i64 0, i64 %indvars.iv34
  %29 = getelementptr inbounds nuw [3 x double], ptr %4, i64 0, i64 %indvars.iv34
  %.promoted = load double, ptr %29, align 8
  %.promoted42 = load double, ptr %28, align 8
  br label %30

30:                                               ; preds = %.preheader, %30
  %31 = phi double [ %.promoted42, %.preheader ], [ %40, %30 ]
  %storemerge38 = phi double [ %.promoted, %.preheader ], [ %41, %30 ]
  %indvars.iv = phi i64 [ 0, %.preheader ], [ %indvars.iv.next, %30 ]
  %32 = getelementptr inbounds nuw [3 x double], ptr %1, i64 0, i64 %indvars.iv
  %33 = load double, ptr %32, align 8
  %gep.idx = shl nuw nsw i64 %indvars.iv, 5
  %gep = getelementptr inbounds nuw i8, ptr %invariant.gep, i64 %gep.idx
  %34 = load double, ptr %gep, align 8
  %35 = fmul double %33, %34
  %36 = getelementptr inbounds nuw [3 x double], ptr %6, i64 0, i64 %indvars.iv
  %37 = load double, ptr %36, align 8
  %38 = fmul double %34, %37
  %39 = fcmp olt double %35, %38
  %. = select i1 %39, double %35, double %38
  %.41 = select i1 %39, double %38, double %35
  %40 = fadd double %., %31
  %41 = fadd double %.41, %storemerge38
  %indvars.iv.next = add nuw nsw i64 %indvars.iv, 1
  %exitcond.not = icmp eq i64 %indvars.iv.next, 3
  br i1 %exitcond.not, label %42, label %30, !llvm.loop !4

42:                                               ; preds = %30
  store double %40, ptr %28, align 8
  store double %41, ptr %29, align 8
  %indvars.iv.next35 = add nuw nsw i64 %indvars.iv34, 1
  %exitcond37.not = icmp eq i64 %indvars.iv.next35, 3
  br i1 %exitcond37.not, label %43, label %.preheader, !llvm.loop !6

43:                                               ; preds = %42
  call void @llvm.memcpy.p0.p0.i64(ptr noundef nonnull align 8 dereferenceable(48) %0, ptr noundef nonnull align 8 dereferenceable(24) %3, i64 24, i1 false)
  %44 = getelementptr inbounds nuw i8, ptr %0, i64 24
  call void @llvm.memcpy.p0.p0.i64(ptr noundef nonnull align 8 dereferenceable(24) %44, ptr noundef nonnull align 8 dereferenceable(24) %4, i64 24, i1 false)
  br label %45

45:                                               ; preds = %43, %_ZNK32pxrInternal_v0_24__pxrReserved__9GfRange3d7IsEmptyEv.exit.thread
  ret void
}